target datalayout = "e-m:e-p270:32:32-p271:32:32-p272:64:64-i64:64-i128:128-f80:128-n8:16:32:64-S128"
target triple = "x86_64-pc-linux-gnu"

%struct.MOVMuxCencContext = type { ptr, ptr, i64, i64, i32, i32, i16, i64, ptr, i64, ptr, i32, i32, ptr, %struct.CodedBitstreamFragment }
%struct.CodedBitstreamFragment = type { ptr, i64, i64, ptr, i32, i32, ptr }
%struct.MOVTrack = type { i32, i32, i32, i32, i64, i64, i32, i64, i64, i64, i32, i32, i32, i32, i32, i32, i32, ptr, ptr, i32, i32, i32, ptr, ptr, ptr, i32, i32, i32, i32, i32, i64, i64, i64, i32, i64, i32, i32, ptr, i32, i64, i32, i64, i32, i32, %struct.HintSampleQueue, ptr, ptr, i64, i32, i32, i32, ptr, i32, %struct.anon, ptr, %struct.MOVMuxCencContext, [256 x i32], i32, i32, i32, %struct.PacketList, ptr, i32, i32, ptr }
%struct.HintSampleQueue = type { i32, i32, ptr }
%struct.anon = type { i32, i32, i32, i32, i32, i32, i32 }
%struct.PacketList = type { ptr, ptr }

@.str.8 = private unnamed_addr constant [5 x i8] c"sinf\00", align 1
@.str.9 = private unnamed_addr constant [5 x i8] c"frma\00", align 1
@.str.10 = private unnamed_addr constant [5 x i8] c"schm\00", align 1
@.str.11 = private unnamed_addr constant [5 x i8] c"cenc\00", align 1
@.str.17 = private unnamed_addr constant [5 x i8] c"schi\00", align 1
@.str.18 = private unnamed_addr constant [5 x i8] c"tenc\00", align 1

; Function Attrs: nounwind uwtable
define internal i64 @update_size(ptr noundef %0, i64 noundef %1) #0 {
  %3 = alloca ptr, align 8
  %4 = alloca i64, align 8
  %5 = alloca i64, align 8
  store ptr %0, ptr %3, align 8, !tbaa !8
  store i64 %1, ptr %4, align 8, !tbaa !35
  call void @llvm.lifetime.start.p0(i64 8, ptr %5) #7
  %6 = load ptr, ptr %3, align 8, !tbaa !8
  %7 = call i64 @avio_tell(ptr noundef %6)
  store i64 %7, ptr %5, align 8, !tbaa !35
  %8 = load ptr, ptr %3, align 8, !tbaa !8
  %9 = load i64, ptr %4, align 8, !tbaa !35
  %10 = call i64 @avio_seek(ptr noundef %8, i64 noundef %9, i32 noundef 0)
  %11 = load ptr, ptr %3, align 8, !tbaa !8
  %12 = load i64, ptr %5, align 8, !tbaa !35
  %13 = load i64, ptr %4, align 8, !tbaa !35
  %14 = sub nsw i64 %12, %13
  %15 = trunc i64 %14 to i32
  call void @avio_wb32(ptr noundef %11, i32 noundef %15)
  %16 = load ptr, ptr %3, align 8, !tbaa !8
  %17 = load i64, ptr %5, align 8, !tbaa !35
  %18 = call i64 @avio_seek(ptr noundef %16, i64 noundef %17, i32 noundef 0)
  %19 = load i64, ptr %5, align 8, !tbaa !35
  %20 = load i64, ptr %4, align 8, !tbaa !35
  %21 = sub nsw i64 %19, %20
  call void @llvm.lifetime.end.p0(i64 8, ptr %5) #7
  ret i64 %21
}

; Function Attrs: nounwind uwtable
define internal i32 @mov_cenc_write_schi_tag(ptr noundef %0, ptr noundef %1) #0 {
  %3 = alloca ptr, align 8
  %4 = alloca ptr, align 8
  %5 = alloca i64, align 8
  store ptr %0, ptr %3, align 8, !tbaa !8
  store ptr %1, ptr %4, align 8, !tbaa !10
  call void @llvm.lifetime.start.p0(i64 8, ptr %5) #7
  %6 = load ptr, ptr %3, align 8, !tbaa !8
  %7 = call i64 @avio_tell(ptr noundef %6)
  store i64 %7, ptr %5, align 8, !tbaa !35
  %8 = load ptr, ptr %3, align 8, !tbaa !8
  call void @avio_wb32(ptr noundef %8, i32 noundef 0)
  %9 = load ptr, ptr %3, align 8, !tbaa !8
  call void @ffio_wfourcc(ptr noundef %9, ptr noundef @.str.17)
  %10 = load ptr, ptr %3, align 8, !tbaa !8
  call void @avio_wb32(ptr noundef %10, i32 noundef 32)
  %11 = load ptr, ptr %3, align 8, !tbaa !8
  call void @ffio_wfourcc(ptr noundef %11, ptr noundef @.str.18)
  %12 = load ptr, ptr %3, align 8, !tbaa !8
  call void @avio_wb32(ptr noundef %12, i32 noundef 0)
  %13 = load ptr, ptr %3, align 8, !tbaa !8
  call void @avio_wb24(ptr noundef %13, i32 noundef 1)
  %14 = load ptr, ptr %3, align 8, !tbaa !8
  call void @avio_w8(ptr noundef %14, i32 noundef 8)
  %15 = load ptr, ptr %3, align 8, !tbaa !8
  %16 = load ptr, ptr %4, align 8, !tbaa !10
  call void @avio_write(ptr noundef %15, ptr noundef %16, i32 noundef 16)
  %17 = load ptr, ptr %3, align 8, !tbaa !8
  %18 = load i64, ptr %5, align 8, !tbaa !35
  %19 = call i64 @update_size(ptr noundef %17, i64 noundef %18)
  %20 = trunc i64 %19 to i32
  call void @llvm.lifetime.end.p0(i64 8, ptr %5) #7
  ret i32 %20
}

; Function Attrs: alwaysinline nounwind uwtable
define internal void @ffio_wfourcc(ptr noundef %0, ptr noundef %1) #4 {
  %3 = alloca ptr, align 8
  %4 = alloca ptr, align 8
  store ptr %0, ptr %3, align 8, !tbaa !8
  store ptr %1, ptr %4, align 8, !tbaa !10
  %5 = load ptr, ptr %3, align 8, !tbaa !8
  %6 = load ptr, ptr %4, align 8, !tbaa !10
  %7 = getelementptr inbounds i8, ptr %6, i64 0
  %8 = load i8, ptr %7, align 1, !tbaa !30
  %9 = zext i8 %8 to i32
  %10 = load ptr, ptr %4, align 8, !tbaa !10
  %11 = getelementptr inbounds i8, ptr %10, i64 1
  %12 = load i8, ptr %11, align 1, !tbaa !30
  %13 = zext i8 %12 to i32
  %14 = shl i32 %13, 8
  %15 = or i32 %9, %14
  %16 = load ptr, ptr %4, align 8, !tbaa !10
  %17 = getelementptr inbounds i8, ptr %16, i64 2
  %18 = load i8, ptr %17, align 1, !tbaa !30
  %19 = zext i8 %18 to i32
  %20 = shl i32 %19, 16
  %21 = or i32 %15, %20
  %22 = load ptr, ptr %4, align 8, !tbaa !10
  %23 = getelementptr inbounds i8, ptr %22, i64 3
  %24 = load i8, ptr %23, align 1, !tbaa !30
  %25 = zext i8 %24 to i32
  %26 = shl i32 %25, 24
  %27 = or i32 %21, %26
  call void @avio_wl32(ptr noundef %5, i32 noundef %27)
  ret void
}

; Function Attrs: alwaysinline nounwind uwtable
define internal i64 @avio_tell(ptr noundef %0) #4 {
  %2 = alloca ptr, align 8
  store ptr %0, ptr %2, align 8, !tbaa !8
  %3 = load ptr, ptr %2, align 8, !tbaa !8
  %4 = call i64 @avio_seek(ptr noundef %3, i64 noundef 0, i32 noundef 1)
  ret i64 %4
}

; Function Attrs: nounwind uwtable
define i32 @ff_mov_cenc_write_sinf_tag(ptr noundef %0, ptr noundef %1, ptr noundef %2) #0 {
  %4 = alloca ptr, align 8
  %5 = alloca ptr, align 8
  %6 = alloca ptr, align 8
  %7 = alloca i64, align 8
  store ptr %0, ptr %4, align 8, !tbaa !100
  store ptr %1, ptr %5, align 8, !tbaa !8
  store ptr %2, ptr %6, align 8, !tbaa !10
  call void @llvm.lifetime.start.p0(i64 8, ptr %7) #7
  %8 = load ptr, ptr %5, align 8, !tbaa !8
  %9 = call i64 @avio_tell(ptr noundef %8)
  store i64 %9, ptr %7, align 8, !tbaa !35
  %10 = load ptr, ptr %5, align 8, !tbaa !8
  call void @avio_wb32(ptr noundef %10, i32 noundef 0)
  %11 = load ptr, ptr %5, align 8, !tbaa !8
  call void @ffio_wfourcc(ptr noundef %11, ptr noundef @.str.8)
  %12 = load ptr, ptr %5, align 8, !tbaa !8
  call void @avio_wb32(ptr noundef %12, i32 noundef 12)
  %13 = load ptr, ptr %5, align 8, !tbaa !8
  call void @ffio_wfourcc(ptr noundef %13, ptr noundef @.str.9)
  %14 = load ptr, ptr %5, align 8, !tbaa !8
  %15 = load ptr, ptr %4, align 8, !tbaa !100
  %16 = getelementptr inbounds nuw %struct.MOVTrack, ptr %15, i32 0, i32 16
  %17 = load i32, ptr %16, align 8, !tbaa !102
  call void @avio_wl32(ptr noundef %14, i32 noundef %17)
  %18 = load ptr, ptr %5, align 8, !tbaa !8
  call void @avio_wb32(ptr noundef %18, i32 noundef 20)
  %19 = load ptr, ptr %5, align 8, !tbaa !8
  call void @ffio_wfourcc(ptr noundef %19, ptr noundef @.str.10)
  %20 = load ptr, ptr %5, align 8, !tbaa !8
  call void @avio_wb32(ptr noundef %20, i32 noundef 0)
  %21 = load ptr, ptr %5, align 8, !tbaa !8
  call void @ffio_wfourcc(ptr noundef %21, ptr noundef @.str.11)
  %22 = load ptr, ptr %5, align 8, !tbaa !8
  call void @avio_wb32(ptr noundef %22, i32 noundef 65536)
  %23 = load ptr, ptr %5, align 8, !tbaa !8
  %24 = load ptr, ptr %6, align 8, !tbaa !10
  %25 = call i32 @mov_cenc_write_schi_tag(ptr noundef %23, ptr noundef %24)
  %26 = load ptr, ptr %5, align 8, !tbaa !8
  %27 = load i64, ptr %7, align 8, !tbaa !35
  %28 = call i64 @update_size(ptr noundef %26, i64 noundef %27)
  %29 = trunc i64 %28 to i32
  call void @llvm.lifetime.end.p0(i64 8, ptr %7) #7
  ret i32 %29
}