; Function Attrs: nounwind uwtable
define noundef i32 @ff_mov_cenc_write_sinf_tag(ptr noundef readonly captures(none) %0, ptr noundef %1, ptr noundef %2) local_unnamed_addr #0 {
  %4 = tail call i64 @avio_seek(ptr noundef %1, i64 noundef 0, i32 noundef 1) #5
  tail call void @avio_wb32(ptr noundef %1, i32 noundef 0) #5
  tail call void @avio_wl32(ptr noundef %1, i32 noundef 1718511987) #5
  tail call void @avio_wb32(ptr noundef %1, i32 noundef 12) #5
  tail call void @avio_wl32(ptr noundef %1, i32 noundef 1634562662) #5
  %5 = getelementptr inbounds nuw i8, ptr %0, i64 88
  %6 = load i32, ptr %5, align 8, !tbaa !74
  tail call void @avio_wl32(ptr noundef %1, i32 noundef %6) #5
  tail call void @avio_wb32(ptr noundef %1, i32 noundef 20) #5
  tail call void @avio_wl32(ptr noundef %1, i32 noundef 1835557747) #5
  tail call void @avio_wb32(ptr noundef %1, i32 noundef 0) #5
  tail call void @avio_wl32(ptr noundef %1, i32 noundef 1668179299) #5
  tail call void @avio_wb32(ptr noundef %1, i32 noundef 65536) #5
  %7 = tail call i64 @avio_seek(ptr noundef %1, i64 noundef 0, i32 noundef 1) #5
  tail call void @avio_wb32(ptr noundef %1, i32 noundef 0) #5
  tail call void @avio_wl32(ptr noundef %1, i32 noundef 1768448883) #5
  tail call void @avio_wb32(ptr noundef %1, i32 noundef 32) #5
  tail call void @avio_wl32(ptr noundef %1, i32 noundef 1668179316) #5
  tail call void @avio_wb32(ptr noundef %1, i32 noundef 0) #5
  tail call void @avio_wb24(ptr noundef %1, i32 noundef 1) #5
  tail call void @avio_w8(ptr noundef %1, i32 noundef 8) #5
  tail call void @avio_write(ptr noundef %1, ptr noundef %2, i32 noundef 16) #5
  %8 = tail call i64 @avio_seek(ptr noundef %1, i64 noundef 0, i32 noundef 1) #5
  %9 = tail call i64 @avio_seek(ptr noundef %1, i64 noundef %7, i32 noundef 0) #5
  %10 = sub nsw i64 %8, %7
  %11 = trunc i64 %10 to i32
  tail call void @avio_wb32(ptr noundef %1, i32 noundef %11) #5
  %12 = tail call i64 @avio_seek(ptr noundef %1, i64 noundef %8, i32 noundef 0) #5
  %13 = tail call i64 @avio_seek(ptr noundef %1, i64 noundef 0, i32 noundef 1) #5
  %14 = tail call i64 @avio_seek(ptr noundef %1, i64 noundef %4, i32 noundef 0) #5
  %15 = sub nsw i64 %13, %4
  %16 = trunc i64 %15 to i32
  tail call void @avio_wb32(ptr noundef %1, i32 noundef %16) #5
  %17 = tail call i64 @avio_seek(ptr noundef %1, i64 noundef %13, i32 noundef 0) #5
  ret i32 %16
}